# Assembly routines to read values from a global ioregisters
# variable using various patterns of mov instruction and
# registers.
	.text
	.globl	pattern_movzbl_ax
	.type	pattern_movzbl_ax, @function
pattern_movzbl_ax:
.LFB0:
	.cfi_startproc
	pushq	%rbp
	.cfi_def_cfa_offset 16
	.cfi_offset 6, -16
	movq	%rsp, %rbp
	.cfi_def_cfa_register 6
	movq	ioregisters(%rip), %rax
	popq	%rbp
	.cfi_def_cfa 7, 8
	ret
	.cfi_endproc
.LFE0:
	.size	pattern_movzbl_ax, .-pattern_movzbl_ax
	.globl	pattern_movzbl_bx
	.type	pattern_movzbl_bx, @function
pattern_movzbl_bx:
.LFB1:
	.cfi_startproc
	pushq	%rbp
	.cfi_def_cfa_offset 16
	.cfi_offset 6, -16
	movq	%rsp, %rbp
	.cfi_def_cfa_register 6
	movq	ioregisters(%rip), %rax
	popq	%rbp
	.cfi_def_cfa 7, 8
	ret
	.cfi_endproc
.LFE1:
	.size	pattern_movzbl_bx, .-pattern_movzbl_bx
	.globl	pattern_movzbl_cx
	.type	pattern_movzbl_cx, @function
pattern_movzbl_cx:
.LFB2:
	.cfi_startproc
	pushq	%rbp
	.cfi_def_cfa_offset 16
	.cfi_offset 6, -16
	movq	%rsp, %rbp
	.cfi_def_cfa_register 6
	movq	ioregisters(%rip), %rax
	popq	%rbp
	.cfi_def_cfa 7, 8
	ret
	.cfi_endproc
.LFE2:
	.size	pattern_movzbl_cx, .-pattern_movzbl_cx
	.globl	pattern_movzbl_dx
	.type	pattern_movzbl_dx, @function
pattern_movzbl_dx:
.LFB3:
	.cfi_startproc
	pushq	%rbp
	.cfi_def_cfa_offset 16
	.cfi_offset 6, -16
	movq	%rsp, %rbp
	.cfi_def_cfa_register 6
	movq	ioregisters(%rip), %rax
	popq	%rbp
	.cfi_def_cfa 7, 8
	ret
	.cfi_endproc
.LFE3:
	.size	pattern_movzbl_dx, .-pattern_movzbl_dx
	.globl	pattern_mov_ax
	.type	pattern_mov_ax, @function
pattern_mov_ax:
.LFB4:
	.cfi_startproc
	pushq	%rbp
	.cfi_def_cfa_offset 16
	.cfi_offset 6, -16
	movq	%rsp, %rbp
	.cfi_def_cfa_register 6
	movq	ioregisters(%rip), %rax
	popq	%rbp
	.cfi_def_cfa 7, 8
	ret
	.cfi_endproc
.LFE4:
	.size	pattern_mov_ax, .-pattern_mov_ax
	.globl	pattern_mov_bx
	.type	pattern_mov_bx, @function
pattern_mov_bx:
.LFB5:
	.cfi_startproc
	pushq	%rbp
	.cfi_def_cfa_offset 16
	.cfi_offset 6, -16
	movq	%rsp, %rbp
	.cfi_def_cfa_register 6
	movq	ioregisters(%rip), %rax
	popq	%rbp
	.cfi_def_cfa 7, 8
	ret
	.cfi_endproc
.LFE5:
	.size	pattern_mov_bx, .-pattern_mov_bx
	.globl	pattern_mov_cx
	.type	pattern_mov_cx, @function
pattern_mov_cx:
.LFB6:
	.cfi_startproc
	pushq	%rbp
	.cfi_def_cfa_offset 16
	.cfi_offset 6, -16
	movq	%rsp, %rbp
	.cfi_def_cfa_register 6
	movq	ioregisters(%rip), %rax
	popq	%rbp
	.cfi_def_cfa 7, 8
	ret
	.cfi_endproc
.LFE6:
	.size	pattern_mov_cx, .-pattern_mov_cx
	.globl	pattern_mov_dx
	.type	pattern_mov_dx, @function
pattern_mov_dx:
.LFB7:
	.cfi_startproc
	pushq	%rbp
	.cfi_def_cfa_offset 16
	.cfi_offset 6, -16
	movq	%rsp, %rbp
	.cfi_def_cfa_register 6
	movq	ioregisters(%rip), %rax
	popq	%rbp
	.cfi_def_cfa 7, 8
	ret
	.cfi_endproc
.LFE7:
	.size	pattern_mov_dx, .-pattern_mov_dx
	.ident	"GCC: (Debian 10.2.1-6) 10.2.1 20210110"
	.section	.note.GNU-stack,"",@progbits
